; Function Attrs: mustprogress null_pointer_is_valid sspstrong uwtable
define void @_ZN9ProtoTree8goToHfidEi(ptr noundef align 8 dereferenceable_or_null(208) %0, i32 noundef %1) local_unnamed_addr #0 align 2 {
  %3 = alloca %class.QModelIndex, align 8
  call void @llvm.lifetime.start.p0(i64 24, ptr nonnull %3) #21
  %4 = getelementptr inbounds nuw i8, ptr %0, i64 40
  %5 = load ptr, ptr %4, align 8
  call void @_ZN14ProtoTreeModel13findFirstHfidEi(ptr dead_on_unwind nonnull writable sret(%class.QModelIndex) align 8 %3, ptr noundef align 8 dereferenceable_or_null(24) %5, i32 noundef %1)
  %6 = call noundef ptr @_ZNK17QAbstractItemView14selectionModelEv(ptr noundef align 8 dereferenceable_or_null(208) %0)
  %7 = load ptr, ptr %6, align 8
  %8 = getelementptr inbounds nuw i8, ptr %7, i64 96
  %9 = load ptr, ptr %8, align 8
  call void %9(ptr noundef align 8 dereferenceable_or_null(16) %6, ptr noundef nonnull align 8 dereferenceable(24) %3, i32 3)
  %10 = load i32, ptr %3, align 8
  %11 = icmp sgt i32 %10, -1
  %12 = getelementptr inbounds nuw i8, ptr %3, i64 4
  %13 = load i32, ptr %12, align 4
  %14 = icmp sgt i32 %13, -1
  %or.cond.i = select i1 %11, i1 %14, i1 false
  %15 = getelementptr inbounds nuw i8, ptr %3, i64 16
  %16 = load ptr, ptr %15, align 8
  %17 = icmp ne ptr %16, null
  %or.cond8.i = select i1 %or.cond.i, i1 %17, i1 false
  br i1 %or.cond8.i, label %18, label %_ZN9ProtoTree12autoScrollToERK11QModelIndex.exit

18:                                               ; preds = %2
  %19 = load ptr, ptr %0, align 8
  %20 = getelementptr inbounds nuw i8, ptr %19, i64 488
  %21 = load ptr, ptr %20, align 8
  call void %21(ptr noundef align 8 dereferenceable_or_null(208) %0, ptr noundef nonnull align 8 dereferenceable(24) %3, i32 noundef 0)
  br label %_ZN9ProtoTree12autoScrollToERK11QModelIndex.exit

_ZN9ProtoTree12autoScrollToERK11QModelIndex.exit: ; preds = %2, %18
  call void @llvm.lifetime.end.p0(i64 24, ptr nonnull %3) #21
  ret void
}